Certificate:
    Data:
        Version: 3 (0x2)
        Serial Number:
            2c:4d:40:68:88:09:18:4f:6e:78:c0:c3:d5:c6:e2:b7:5f:1b:b5:25
        Signature Algorithm: sha256WithRSAEncryption
        Issuer: C=RU, ST=Moscow, L=Moscow, O=HomeLab, OU=job_system, CN=root
        Validity
            Not Before: Nov 12 08:24:21 2025 GMT
            Not After : Nov 12 08:24:21 2026 GMT
        Subject: C=RU, ST=Moscow, L=Moscow, O=HomeLab, OU=job_system, CN=root
        Subject Public Key Info:
            Public Key Algorithm: rsaEncryption
                Public-Key: (2048 bit)
                Modulus:
                    00:dd:82:eb:8f:ca:89:96:23:e1:4b:e3:ef:dc:c8:
                    f3:48:66:a3:06:a2:b7:e8:eb:41:5b:2a:ed:02:04:
                    ad:52:dc:6d:47:56:27:56:e4:69:3e:44:6b:6b:56:
                    c6:e3:13:b9:fb:9f:bc:64:a9:70:1c:34:de:f2:ae:
                    d4:f2:dd:40:1e:50:cf:8c:32:e1:2a:b9:24:58:c9:
                    9b:a7:7f:70:56:bc:91:e4:9a:a0:cc:47:20:0f:e6:
                    4d:d3:ed:db:22:db:b9:de:28:3a:a3:bd:03:ab:52:
                    12:5f:09:b3:2b:0e:2d:6c:a3:c4:f1:7a:7b:59:d5:
                    ae:05:25:20:f9:e0:bb:0b:9d:4a:19:f7:fa:b4:dc:
                    f3:de:29:54:6b:dd:2c:be:d7:57:93:f9:ce:fe:37:
                    47:93:d8:e0:ee:7c:c7:8b:17:36:a2:5d:87:b9:6a:
                    71:32:49:90:a3:d8:18:51:32:50:ec:8a:9d:fd:41:
                    dc:33:a8:60:81:d4:3f:ab:73:96:5f:60:c8:eb:af:
                    63:d8:de:ac:b7:03:f8:e6:b1:04:37:d6:11:2d:ca:
                    10:99:bb:4d:7c:de:fc:bd:13:3c:ff:58:f6:0f:8b:
                    4c:27:f5:49:b8:f7:cb:37:e7:0b:ff:c7:59:04:33:
                    9b:2e:af:1b:10:fc:f3:7d:ee:d7:82:ac:60:b7:59:
                    9a:c7
                Exponent: 65537 (0x10001)
        X509v3 extensions:
            X509v3 Basic Constraints: critical
                CA:TRUE, pathlen:0
            X509v3 Subject Key Identifier: 
                D6:B2:0A:32:0D:97:5E:FC:29:D6:C4:E8:65:13:E5:5B:D3:2C:7F:D3
            X509v3 Authority Key Identifier: 
                keyid:D6:B2:0A:32:0D:97:5E:FC:29:D6:C4:E8:65:13:E5:5B:D3:2C:7F:D3
                DirName:/C=RU/ST=Moscow/L=Moscow/O=HomeLab/OU=job_system/CN=root
                serial:2C:4D:40:68:88:09:18:4F:6E:78:C0:C3:D5:C6:E2:B7:5F:1B:B5:25
            X509v3 Key Usage: critical
                Certificate Sign, CRL Sign
    Signature Algorithm: sha256WithRSAEncryption
    Signature Value:
        a4:78:0c:71:21:92:dd:6a:70:1a:1e:74:32:ac:e2:60:d4:ca:
        93:d0:e9:98:fc:24:f1:5f:df:e9:bf:23:de:6a:c1:46:76:50:
        6e:f4:b8:ef:49:e0:90:6e:eb:d6:4e:f2:27:eb:69:8f:b0:d0:
        d3:5b:d2:1d:51:d5:92:90:47:9a:30:71:dc:e9:38:40:e7:41:
        6d:b9:be:e9:46:5a:97:47:7b:21:50:58:91:e9:55:a7:a1:cf:
        7a:77:66:5c:e2:b5:9a:aa:b0:59:4b:26:0f:76:3b:6c:82:c1:
        71:c6:1c:a8:f1:b0:b9:16:fe:e9:59:cf:ee:a2:61:1d:fc:75:
        cc:6d:b4:13:4d:23:48:48:05:1c:2c:53:09:2f:da:4a:94:fe:
        0d:ac:cb:62:4d:00:52:d2:2f:fb:19:f0:85:c7:04:54:bf:77:
        a5:e1:74:4e:fc:fb:3a:9d:c3:b9:7f:6a:f5:f7:b6:37:3c:5a:
        24:5e:2d:31:3a:0b:2e:05:10:36:dc:c4:5d:c2:d3:60:10:7f:
        86:c2:07:30:c0:9c:84:f3:ad:b7:a0:49:e6:bd:a7:d2:2f:c4:
        ae:8c:d6:9d:9b:50:81:25:04:f5:67:bc:8d:0a:e9:6b:19:25:
        c9:59:d2:95:6a:2b:9e:8a:8b:1d:38:dc:ae:f4:26:05:aa:41:
        ab:48:f9:e2
-----BEGIN CERTIFICATE-----
MIIERDCCAyygAwIBAgIULE1AaIgJGE9ueMDD1cbit18btSUwDQYJKoZIhvcNAQEL
BQAwZTELMAkGA1UEBhMCUlUxDzANBgNVBAgMBk1vc2NvdzEPMA0GA1UEBwwGTW9z
Y293MRAwDgYDVQQKDAdIb21lTGFiMRMwEQYDVQQLDApqb2Jfc3lzdGVtMQ0wCwYD
VQQDDARyb290MB4XDTI1MTExMjA4MjQyMVoXDTI2MTExMjA4MjQyMVowZTELMAkG
A1UEBhMCUlUxDzANBgNVBAgMBk1vc2NvdzEPMA0GA1UEBwwGTW9zY293MRAwDgYD
VQQKDAdIb21lTGFiMRMwEQYDVQQLDApqb2Jfc3lzdGVtMQ0wCwYDVQQDDARyb290
MIIBIjANBgkqhkiG9w0BAQEFAAOCAQ8AMIIBCgKCAQEA3YLrj8qJliPhS+Pv3Mjz
SGajBqK36OtBWyrtAgStUtxtR1YnVuRpPkRra1bG4xO5+5+8ZKlwHDTe8q7U8t1A
HlDPjDLhKrkkWMmbp39wVryR5JqgzEcgD+ZN0+3bItu53ig6o70Dq1ISXwmzKw4t
bKPE8Xp7WdWuBSUg+eC7C51KGff6tNzz3ilUa90svtdXk/nO/jdHk9jg7nzHixc2
ol2HuWpxMkmQo9gYUTJQ7Iqd/UHcM6hggdQ/q3OWX2DI669j2N6stwP45rEEN9YR
LcoQmbtNfN78vRM8/1j2D4tMJ/VJuPfLN+cL/8dZBDObLq8bEPzzfe7Xgqxgt1ma
xwIDAQABo4HrMIHoMBIGA1UdEwEB/wQIMAYBAf8CAQAwHQYDVR0OBBYEFNayCjIN
l178KdbE6GUT5VvTLH/TMIGiBgNVHSMEgZowgZeAFNayCjINl178KdbE6GUT5VvT
LH/ToWmkZzBlMQswCQYDVQQGEwJSVTEPMA0GA1UECAwGTW9zY293MQ8wDQYDVQQH
DAZNb3Njb3cxEDAOBgNVBAoMB0hvbWVMYWIxEzARBgNVBAsMCmpvYl9zeXN0ZW0x
DTALBgNVBAMMBHJvb3SCFCxNQGiICRhPbnjAw9XG4rdfG7UlMA4GA1UdDwEB/wQE
AwIBBjANBgkqhkiG9w0BAQsFAAOCAQEApHgMcSGS3WpwGh50MqziYNTKk9DpmPwk
8V/f6b8j3mrBRnZQbvS470ngkG7r1k7yJ+tpj7DQ01vSHVHVkpBHmjBx3Ok4QOdB
bbm+6UZal0d7IVBYkelVp6HPendmXOK1mqqwWUsmD3Y7bILBccYcqPGwuRb+6VnP
7qJhHfx1zG20E00jSEgFHCxTCS/aSpT+DazLYk0AUtIv+xnwhccEVL93peF0Tvz7
Op3DuX9q9fe2NzxaJF4tMToLLgUQNtzEXcLTYBB/hsIHMMCchPOtt6BJ5r2n0i/E
rozWnZtQgSUE9We8jQrpaxklyVnSlWornoqLHTjcrvQmBapBq0j54g==
-----END CERTIFICATE-----
